target datalayout = "e-m:e-p270:32:32-p271:32:32-p272:64:64-i64:64-i128:128-f80:128-n8:16:32:64-S128"
target triple = "x86_64-pc-linux-gnu"

%"class.std::__cxx11::basic_string" = type { %"struct.std::__cxx11::basic_string<char>::_Alloc_hider", i64, %union.anon }
%"struct.std::__cxx11::basic_string<char>::_Alloc_hider" = type { ptr }
%union.anon = type { i64, [8 x i8] }
%class.BigUnsignedInABase = type <{ %class.NumberlikeArray, i16, [6 x i8] }>
%class.NumberlikeArray = type { i32, i32, ptr }

; Function Attrs: mustprogress nounwind uwtable
define linkonce_odr void @_ZN15NumberlikeArrayItED2Ev(ptr noundef nonnull align 8 dereferenceable(16) %0) unnamed_addr #6 comdat align 2 {
  %2 = alloca ptr, align 8
  store ptr %0, ptr %2, align 8, !tbaa !11
  %3 = load ptr, ptr %2, align 8
  %4 = getelementptr inbounds nuw %class.NumberlikeArray, ptr %3, i32 0, i32 2
  %5 = load ptr, ptr %4, align 8, !tbaa !13
  %6 = icmp eq ptr %5, null
  br i1 %6, label %8, label %7

7:                                                ; preds = %1
  call void @_ZdaPv(ptr noundef %5) #16
  br label %8

8:                                                ; preds = %7, %1
  ret void
}

; Function Attrs: mustprogress uwtable
define void @_Z19bigUnsignedToStringB5cxx11RK11BigUnsigned(ptr dead_on_unwind noalias writable sret(%"class.std::__cxx11::basic_string") align 8 %0, ptr noundef nonnull align 8 dereferenceable(16) %1) #4 personality ptr @__gxx_personality_v0 {
  %3 = alloca ptr, align 8
  %4 = alloca ptr, align 8
  %5 = alloca %class.BigUnsignedInABase, align 8
  %6 = alloca ptr, align 8
  %7 = alloca i32, align 4
  store ptr %0, ptr %3, align 8
  store ptr %1, ptr %4, align 8, !tbaa !6
  call void @llvm.lifetime.start.p0(i64 24, ptr %5) #3
  %8 = load ptr, ptr %4, align 8, !tbaa !6
  call void @_ZN18BigUnsignedInABaseC1ERK11BigUnsignedt(ptr noundef nonnull align 8 dereferenceable(18) %5, ptr noundef nonnull align 8 dereferenceable(16) %8, i16 noundef zeroext 10)
  invoke void @_ZNK18BigUnsignedInABasecvNSt7__cxx1112basic_stringIcSt11char_traitsIcESaIcEEEEv(ptr dead_on_unwind writable sret(%"class.std::__cxx11::basic_string") align 8 %0, ptr noundef nonnull align 8 dereferenceable(18) %5)
          to label %9 unwind label %10

9:                                                ; preds = %2
  call void @_ZN15NumberlikeArrayItED2Ev(ptr noundef nonnull align 8 dereferenceable(18) %5) #3
  call void @llvm.lifetime.end.p0(i64 24, ptr %5) #3
  ret void

10:                                               ; preds = %2
  %11 = landingpad { ptr, i32 }
          cleanup
  %12 = extractvalue { ptr, i32 } %11, 0
  store ptr %12, ptr %6, align 8
  %13 = extractvalue { ptr, i32 } %11, 1
  store i32 %13, ptr %7, align 4
  call void @_ZN15NumberlikeArrayItED2Ev(ptr noundef nonnull align 8 dereferenceable(18) %5) #3
  call void @llvm.lifetime.end.p0(i64 24, ptr %5) #3
  br label %14

14:                                               ; preds = %10
  %15 = load ptr, ptr %6, align 8
  %16 = load i32, ptr %7, align 4
  %17 = insertvalue { ptr, i32 } poison, ptr %15, 0
  %18 = insertvalue { ptr, i32 } %17, i32 %16, 1
  resume { ptr, i32 } %18
}