; Function Attrs: mustprogress uwtable
define void @_Z19bigUnsignedToStringB5cxx11RK11BigUnsigned(ptr dead_on_unwind noalias writable sret(%"class.std::__cxx11::basic_string") align 8 %0, ptr noundef nonnull align 8 dereferenceable(16) %1) local_unnamed_addr #3 personality ptr @__gxx_personality_v0 {
  %3 = alloca %class.BigUnsignedInABase, align 8
  call void @llvm.lifetime.start.p0(i64 24, ptr nonnull %3) #14
  call void @_ZN18BigUnsignedInABaseC1ERK11BigUnsignedt(ptr noundef nonnull align 8 dereferenceable(18) %3, ptr noundef nonnull align 8 dereferenceable(16) %1, i16 noundef zeroext 10)
  invoke void @_ZNK18BigUnsignedInABasecvNSt7__cxx1112basic_stringIcSt11char_traitsIcESaIcEEEEv(ptr dead_on_unwind writable sret(%"class.std::__cxx11::basic_string") align 8 %0, ptr noundef nonnull align 8 dereferenceable(18) %3)
          to label %4 unwind label %9

4:                                                ; preds = %2
  %5 = getelementptr inbounds nuw i8, ptr %3, i64 8
  %6 = load ptr, ptr %5, align 8, !tbaa !6
  %7 = icmp eq ptr %6, null
  br i1 %7, label %_ZN15NumberlikeArrayItED2Ev.exit, label %8

8:                                                ; preds = %4
  call void @_ZdaPv(ptr noundef nonnull %6) #15
  br label %_ZN15NumberlikeArrayItED2Ev.exit

_ZN15NumberlikeArrayItED2Ev.exit:                 ; preds = %4, %8
  call void @llvm.lifetime.end.p0(i64 24, ptr nonnull %3) #14
  ret void

9:                                                ; preds = %2
  %10 = landingpad { ptr, i32 }
          cleanup
  %11 = getelementptr inbounds nuw i8, ptr %3, i64 8
  %12 = load ptr, ptr %11, align 8, !tbaa !6
  %13 = icmp eq ptr %12, null
  br i1 %13, label %_ZN15NumberlikeArrayItED2Ev.exit2, label %14

14:                                               ; preds = %9
  call void @_ZdaPv(ptr noundef nonnull %12) #15
  br label %_ZN15NumberlikeArrayItED2Ev.exit2

_ZN15NumberlikeArrayItED2Ev.exit2:                ; preds = %9, %14
  call void @llvm.lifetime.end.p0(i64 24, ptr nonnull %3) #14
  resume { ptr, i32 } %10
}